; Function Attrs: mustprogress uwtable
define dso_local void @_ZN16VariableSelector18get_all_local_varsEPK5BlockRSt6vectorIPK8VariableSaIS6_EE(ptr noundef readonly %0, ptr noundef nonnull align 8 dereferenceable(24) %1) local_unnamed_addr #4 align 2 {
  %.not9 = icmp eq ptr %0, null
  br i1 %.not9, label %._crit_edge, label %.lr.ph

.lr.ph:                                           ; preds = %2
  %3 = getelementptr inbounds i8, ptr %1, i64 8
  br label %4

4:                                                ; preds = %.lr.ph, %4
  %.010 = phi ptr [ %0, %.lr.ph ], [ %16, %4 ]
  %5 = load ptr, ptr %3, align 8
  %6 = getelementptr inbounds i8, ptr %.010, i64 80
  %7 = load ptr, ptr %6, align 8
  %8 = getelementptr inbounds i8, ptr %.010, i64 88
  %9 = load ptr, ptr %8, align 8
  %10 = load ptr, ptr %1, align 8
  %11 = ptrtoint ptr %5 to i64
  %12 = ptrtoint ptr %10 to i64
  %13 = sub i64 %11, %12
  %14 = getelementptr inbounds i8, ptr %10, i64 %13
  tail call void @_ZNSt6vectorIPK8VariableSaIS2_EE15_M_range_insertIN9__gnu_cxx17__normal_iteratorIPKPS0_S_IS8_SaIS8_EEEEEEvNS7_IPS2_S4_EET_SG_St20forward_iterator_tag(ptr noundef nonnull align 8 dereferenceable(24) %1, ptr %14, ptr %7, ptr %9)
  %15 = getelementptr inbounds i8, ptr %.010, i64 24
  %16 = load ptr, ptr %15, align 8
  %.not = icmp eq ptr %16, null
  br i1 %.not, label %._crit_edge, label %4, !llvm.loop !17

._crit_edge:                                      ; preds = %4, %2
  ret void
}